target datalayout = "e-m:e-p270:32:32-p271:32:32-p272:64:64-i64:64-i128:128-f80:128-n8:16:32:64-S128"
target triple = "x86_64-unknown-linux-gnu"

%"class.OpenImageIO_v2_6_0::pvt::TextureSystemImpl" = type <{ %"class.OpenImageIO_v2_6_0::TextureSystem", ptr, i8, [3 x i8], %"class.Imath_2_5::Matrix44", %"class.Imath_2_5::Matrix44", i8, i8, [2 x i8], i32, i32, %"class.boost::thread_specific_ptr", %"class.std::unique_ptr", i32, [4 x i8] }>
%"class.OpenImageIO_v2_6_0::TextureSystem" = type { ptr }
%"class.Imath_2_5::Matrix44" = type { [4 x [4 x float]] }
%"class.boost::thread_specific_ptr" = type { ptr }
%"class.std::unique_ptr" = type { %"struct.std::__uniq_ptr_data" }
%"struct.std::__uniq_ptr_data" = type { %"class.std::__uniq_ptr_impl" }
%"class.std::__uniq_ptr_impl" = type { %"class.std::tuple" }
%"class.std::tuple" = type { %"struct.std::_Tuple_impl" }
%"struct.std::_Tuple_impl" = type { %"struct.std::_Head_base.3" }
%"struct.std::_Head_base.3" = type { ptr }
%"class.OpenImageIO_v2_6_0::ustring" = type { ptr }

; Function Attrs: mustprogress nounwind uwtable
define linkonce_odr noundef nonnull align 4 dereferenceable(4) ptr @_ZSt3maxIiERKT_S2_S2_(ptr noundef nonnull align 4 dereferenceable(4) %__a, ptr noundef nonnull align 4 dereferenceable(4) %__b) #1 comdat {
entry:
  %retval = alloca ptr, align 8
  %__a.addr = alloca ptr, align 8
  %__b.addr = alloca ptr, align 8
  store ptr %__a, ptr %__a.addr, align 8
  store ptr %__b, ptr %__b.addr, align 8
  %0 = load ptr, ptr %__a.addr, align 8
  %1 = load i32, ptr %0, align 4
  %2 = load ptr, ptr %__b.addr, align 8
  %3 = load i32, ptr %2, align 4
  %cmp = icmp slt i32 %1, %3
  br i1 %cmp, label %if.then, label %if.end

if.then:                                          ; preds = %entry
  %4 = load ptr, ptr %__b.addr, align 8
  store ptr %4, ptr %retval, align 8
  br label %return

if.end:                                           ; preds = %entry
  %5 = load ptr, ptr %__a.addr, align 8
  store ptr %5, ptr %retval, align 8
  br label %return

return:                                           ; preds = %if.end, %if.then
  %6 = load ptr, ptr %retval, align 8
  ret ptr %6
}

; Function Attrs: mustprogress uwtable
define hidden noundef ptr @_ZN18OpenImageIO_v2_6_03pvt17TextureSystemImpl12resolve_udimEPNS_13TextureSystem13TextureHandleEPNS2_9PerthreadEff(ptr noundef nonnull align 8 dereferenceable(184) %this, ptr noundef %udimfile, ptr noundef %thread_info, float noundef %s, float noundef %t) unnamed_addr #7 align 2 {
entry:
  %this.addr = alloca ptr, align 8
  %udimfile.addr = alloca ptr, align 8
  %thread_info.addr = alloca ptr, align 8
  %s.addr = alloca float, align 4
  %t.addr = alloca float, align 4
  %utile = alloca i32, align 4
  %ref.tmp = alloca i32, align 4
  %ref.tmp2 = alloca i32, align 4
  %vtile = alloca i32, align 4
  %ref.tmp3 = alloca i32, align 4
  %ref.tmp4 = alloca i32, align 4
  store ptr %this, ptr %this.addr, align 8
  store ptr %udimfile, ptr %udimfile.addr, align 8
  store ptr %thread_info, ptr %thread_info.addr, align 8
  store float %s, ptr %s.addr, align 4
  store float %t, ptr %t.addr, align 4
  %this1 = load ptr, ptr %this.addr, align 8
  store i32 0, ptr %ref.tmp, align 4
  %0 = load float, ptr %s.addr, align 4
  %conv = fptosi float %0 to i32
  store i32 %conv, ptr %ref.tmp2, align 4
  %call = call noundef nonnull align 4 dereferenceable(4) ptr @_ZSt3maxIiERKT_S2_S2_(ptr noundef nonnull align 4 dereferenceable(4) %ref.tmp, ptr noundef nonnull align 4 dereferenceable(4) %ref.tmp2)
  %1 = load i32, ptr %call, align 4
  store i32 %1, ptr %utile, align 4
  store i32 0, ptr %ref.tmp3, align 4
  %2 = load float, ptr %t.addr, align 4
  %conv5 = fptosi float %2 to i32
  store i32 %conv5, ptr %ref.tmp4, align 4
  %call6 = call noundef nonnull align 4 dereferenceable(4) ptr @_ZSt3maxIiERKT_S2_S2_(ptr noundef nonnull align 4 dereferenceable(4) %ref.tmp3, ptr noundef nonnull align 4 dereferenceable(4) %ref.tmp4)
  %3 = load i32, ptr %call6, align 4
  store i32 %3, ptr %vtile, align 4
  %m_imagecache = getelementptr inbounds %"class.OpenImageIO_v2_6_0::pvt::TextureSystemImpl", ptr %this1, i32 0, i32 1
  %4 = load ptr, ptr %m_imagecache, align 8
  %5 = load ptr, ptr %udimfile.addr, align 8
  %6 = load ptr, ptr %thread_info.addr, align 8
  %7 = load i32, ptr %utile, align 4
  %8 = load i32, ptr %vtile, align 4
  %call7 = call noundef ptr @_ZN18OpenImageIO_v2_6_03pvt14ImageCacheImpl12resolve_udimEPNS0_14ImageCacheFileEPNS0_23ImageCachePerThreadInfoEii(ptr noundef nonnull align 64 dereferenceable(25280) %4, ptr noundef %5, ptr noundef %6, i32 noundef %7, i32 noundef %8)
  ret ptr %call7
}

; Function Attrs: mustprogress nounwind uwtable
define linkonce_odr void @_ZN18OpenImageIO_v2_6_07ustringD2Ev(ptr noundef nonnull align 8 dereferenceable(8) %this) unnamed_addr #1 comdat align 2 {
entry:
  %this.addr = alloca ptr, align 8
  store ptr %this, ptr %this.addr, align 8
  ret void
}

; Function Attrs: mustprogress uwtable
define linkonce_odr hidden noundef ptr @_ZN18OpenImageIO_v2_6_03pvt17TextureSystemImpl16find_texturefileENS_7ustringEPNS0_23ImageCachePerThreadInfoEPKNS_10TextureOptE(ptr noundef nonnull align 8 dereferenceable(184) %this, ptr noundef %filename, ptr noundef %thread_info, ptr noundef %options) #7 comdat align 2 personality ptr @__gxx_personality_v0 {
entry:
  %this.addr = alloca ptr, align 8
  %filename.indirect_addr = alloca ptr, align 8
  %thread_info.addr = alloca ptr, align 8
  %options.addr = alloca ptr, align 8
  %agg.tmp = alloca %"class.OpenImageIO_v2_6_0::ustring", align 8
  %exn.slot = alloca ptr, align 8
  %ehselector.slot = alloca i32, align 4
  store ptr %this, ptr %this.addr, align 8
  store ptr %filename, ptr %filename.indirect_addr, align 8
  store ptr %thread_info, ptr %thread_info.addr, align 8
  store ptr %options, ptr %options.addr, align 8
  %this1 = load ptr, ptr %this.addr, align 8
  %m_imagecache = getelementptr inbounds %"class.OpenImageIO_v2_6_0::pvt::TextureSystemImpl", ptr %this1, i32 0, i32 1
  %0 = load ptr, ptr %m_imagecache, align 8
  call void @_ZN18OpenImageIO_v2_6_07ustringC2ERKS0_(ptr noundef nonnull align 8 dereferenceable(8) %agg.tmp, ptr noundef nonnull align 8 dereferenceable(8) %filename) #5
  %1 = load ptr, ptr %thread_info.addr, align 8
  %call = invoke noundef ptr @_ZN18OpenImageIO_v2_6_03pvt14ImageCacheImpl9find_fileENS_7ustringEPNS0_23ImageCachePerThreadInfoEPFPNS_10ImageInputEvEPKNS_9ImageSpecEb(ptr noundef nonnull align 64 dereferenceable(25280) %0, ptr noundef %agg.tmp, ptr noundef %1, ptr noundef null, ptr noundef null, i1 noundef zeroext false)
          to label %invoke.cont unwind label %lpad

invoke.cont:                                      ; preds = %entry
  call void @_ZN18OpenImageIO_v2_6_07ustringD2Ev(ptr noundef nonnull align 8 dereferenceable(8) %agg.tmp) #5
  ret ptr %call

lpad:                                             ; preds = %entry
  %2 = landingpad { ptr, i32 }
          cleanup
  %3 = extractvalue { ptr, i32 } %2, 0
  store ptr %3, ptr %exn.slot, align 8
  %4 = extractvalue { ptr, i32 } %2, 1
  store i32 %4, ptr %ehselector.slot, align 4
  call void @_ZN18OpenImageIO_v2_6_07ustringD2Ev(ptr noundef nonnull align 8 dereferenceable(8) %agg.tmp) #5
  br label %eh.resume

eh.resume:                                        ; preds = %lpad
  %exn = load ptr, ptr %exn.slot, align 8
  %sel = load i32, ptr %ehselector.slot, align 4
  %lpad.val = insertvalue { ptr, i32 } poison, ptr %exn, 0
  %lpad.val2 = insertvalue { ptr, i32 } %lpad.val, i32 %sel, 1
  resume { ptr, i32 } %lpad.val2
}

; Function Attrs: mustprogress nounwind uwtable
define linkonce_odr void @_ZN18OpenImageIO_v2_6_07ustringC2ERKS0_(ptr noundef nonnull align 8 dereferenceable(8) %this, ptr noundef nonnull align 8 dereferenceable(8) %str) unnamed_addr #1 comdat align 2 {
entry:
  %this.addr = alloca ptr, align 8
  %str.addr = alloca ptr, align 8
  store ptr %this, ptr %this.addr, align 8
  store ptr %str, ptr %str.addr, align 8
  %this1 = load ptr, ptr %this.addr, align 8
  %m_chars = getelementptr inbounds %"class.OpenImageIO_v2_6_0::ustring", ptr %this1, i32 0, i32 0
  %0 = load ptr, ptr %str.addr, align 8
  %m_chars2 = getelementptr inbounds %"class.OpenImageIO_v2_6_0::ustring", ptr %0, i32 0, i32 0
  %1 = load ptr, ptr %m_chars2, align 8
  store ptr %1, ptr %m_chars, align 8
  ret void
}

; Function Attrs: mustprogress uwtable
define hidden noundef ptr @_ZN18OpenImageIO_v2_6_03pvt17TextureSystemImpl12resolve_udimENS_7ustringEff(ptr noundef nonnull align 8 dereferenceable(184) %this, ptr noundef %filename, float noundef %s, float noundef %t) unnamed_addr #7 align 2 personality ptr @__gxx_personality_v0 {
entry:
  %this.addr = alloca ptr, align 8
  %filename.indirect_addr = alloca ptr, align 8
  %s.addr = alloca float, align 4
  %t.addr = alloca float, align 4
  %thread_info = alloca ptr, align 8
  %udimfile = alloca ptr, align 8
  %agg.tmp = alloca %"class.OpenImageIO_v2_6_0::ustring", align 8
  %exn.slot = alloca ptr, align 8
  %ehselector.slot = alloca i32, align 4
  store ptr %this, ptr %this.addr, align 8
  store ptr %filename, ptr %filename.indirect_addr, align 8
  store float %s, ptr %s.addr, align 4
  store float %t, ptr %t.addr, align 4
  %this1 = load ptr, ptr %this.addr, align 8
  %m_imagecache = getelementptr inbounds %"class.OpenImageIO_v2_6_0::pvt::TextureSystemImpl", ptr %this1, i32 0, i32 1
  %0 = load ptr, ptr %m_imagecache, align 8
  %call = call noundef ptr @_ZN18OpenImageIO_v2_6_03pvt14ImageCacheImpl18get_perthread_infoEPNS0_23ImageCachePerThreadInfoE(ptr noundef nonnull align 64 dereferenceable(25280) %0, ptr noundef null)
  store ptr %call, ptr %thread_info, align 8
  call void @_ZN18OpenImageIO_v2_6_07ustringC2ERKS0_(ptr noundef nonnull align 8 dereferenceable(8) %agg.tmp, ptr noundef nonnull align 8 dereferenceable(8) %filename) #5
  %1 = load ptr, ptr %thread_info, align 8
  %call2 = invoke noundef ptr @_ZN18OpenImageIO_v2_6_03pvt17TextureSystemImpl16find_texturefileENS_7ustringEPNS0_23ImageCachePerThreadInfoEPKNS_10TextureOptE(ptr noundef nonnull align 8 dereferenceable(184) %this1, ptr noundef %agg.tmp, ptr noundef %1, ptr noundef null)
          to label %invoke.cont unwind label %lpad

invoke.cont:                                      ; preds = %entry
  call void @_ZN18OpenImageIO_v2_6_07ustringD2Ev(ptr noundef nonnull align 8 dereferenceable(8) %agg.tmp) #5
  store ptr %call2, ptr %udimfile, align 8
  %2 = load ptr, ptr %udimfile, align 8
  %3 = load ptr, ptr %thread_info, align 8
  %4 = load float, ptr %s.addr, align 4
  %5 = load float, ptr %t.addr, align 4
  %call3 = call noundef ptr @_ZN18OpenImageIO_v2_6_03pvt17TextureSystemImpl12resolve_udimEPNS_13TextureSystem13TextureHandleEPNS2_9PerthreadEff(ptr noundef nonnull align 8 dereferenceable(184) %this1, ptr noundef %2, ptr noundef %3, float noundef %4, float noundef %5)
  ret ptr %call3

lpad:                                             ; preds = %entry
  %6 = landingpad { ptr, i32 }
          cleanup
  %7 = extractvalue { ptr, i32 } %6, 0
  store ptr %7, ptr %exn.slot, align 8
  %8 = extractvalue { ptr, i32 } %6, 1
  store i32 %8, ptr %ehselector.slot, align 4
  call void @_ZN18OpenImageIO_v2_6_07ustringD2Ev(ptr noundef nonnull align 8 dereferenceable(8) %agg.tmp) #5
  br label %eh.resume

eh.resume:                                        ; preds = %lpad
  %exn = load ptr, ptr %exn.slot, align 8
  %sel = load i32, ptr %ehselector.slot, align 4
  %lpad.val = insertvalue { ptr, i32 } poison, ptr %exn, 0
  %lpad.val4 = insertvalue { ptr, i32 } %lpad.val, i32 %sel, 1
  resume { ptr, i32 } %lpad.val4
}