; Function Attrs: mustprogress uwtable
define hidden noundef ptr @_ZN18OpenImageIO_v2_6_03pvt17TextureSystemImpl12resolve_udimENS_7ustringEff(ptr nocapture noundef nonnull readonly align 8 dereferenceable(184) %this, ptr nocapture noundef readonly %filename, float noundef %s, float noundef %t) unnamed_addr #5 align 2 personality ptr @__gxx_personality_v0 {
entry:
  %agg.tmp.i = alloca %"class.OpenImageIO_v2_6_0::ustring", align 8
  %m_imagecache = getelementptr inbounds i8, ptr %this, i64 8
  %0 = load ptr, ptr %m_imagecache, align 8
  %call = tail call noundef ptr @_ZN18OpenImageIO_v2_6_03pvt14ImageCacheImpl18get_perthread_infoEPNS0_23ImageCachePerThreadInfoE(ptr noundef nonnull align 64 dereferenceable(25280) %0, ptr noundef null)
  %1 = load ptr, ptr %filename, align 8
  call void @llvm.lifetime.start.p0(i64 8, ptr nonnull %agg.tmp.i)
  %2 = load ptr, ptr %m_imagecache, align 8
  store ptr %1, ptr %agg.tmp.i, align 8
  %call.i2 = call noundef ptr @_ZN18OpenImageIO_v2_6_03pvt14ImageCacheImpl9find_fileENS_7ustringEPNS0_23ImageCachePerThreadInfoEPFPNS_10ImageInputEvEPKNS_9ImageSpecEb(ptr noundef nonnull align 64 dereferenceable(25280) %2, ptr noundef nonnull %agg.tmp.i, ptr noundef %call, ptr noundef null, ptr noundef null, i1 noundef zeroext false)
  call void @llvm.lifetime.end.p0(i64 8, ptr nonnull %agg.tmp.i)
  %conv.i = fptosi float %s to i32
  %.sroa.speculated5.i = call i32 @llvm.smax.i32(i32 %conv.i, i32 0)
  %conv5.i = fptosi float %t to i32
  %.sroa.speculated.i = call i32 @llvm.smax.i32(i32 %conv5.i, i32 0)
  %3 = load ptr, ptr %m_imagecache, align 8
  %call7.i = call noundef ptr @_ZN18OpenImageIO_v2_6_03pvt14ImageCacheImpl12resolve_udimEPNS0_14ImageCacheFileEPNS0_23ImageCachePerThreadInfoEii(ptr noundef nonnull align 64 dereferenceable(25280) %3, ptr noundef %call.i2, ptr noundef %call, i32 noundef %.sroa.speculated5.i, i32 noundef %.sroa.speculated.i)
  ret ptr %call7.i
}